; Function Attrs: nounwind uwtable
define i64 @ff_text_pos(ptr noundef readonly captures(none) %0) local_unnamed_addr #0 {
  %2 = getelementptr inbounds nuw i8, ptr %0, i64 8
  %3 = load ptr, ptr %2, align 8, !tbaa !4
  %4 = tail call i64 @avio_seek(ptr noundef %3, i64 noundef 0, i32 noundef 1) #11
  %5 = getelementptr inbounds nuw i8, ptr %0, i64 28
  %6 = load i32, ptr %5, align 4, !tbaa !16
  %7 = sext i32 %6 to i64
  %8 = sub i64 %4, %7
  %9 = getelementptr inbounds nuw i8, ptr %0, i64 24
  %10 = load i32, ptr %9, align 8, !tbaa !17
  %11 = sext i32 %10 to i64
  %12 = add nsw i64 %8, %11
  ret i64 %12
}